; Function Attrs: nounwind uwtable
define range(i32 0, 2) i32 @If_ManImproveNodeFaninCompact_int(ptr noundef readnone captures(none) %0, ptr noundef readnone captures(none) %1, i32 noundef %2, ptr noundef captures(none) %3, ptr noundef captures(none) %4) local_unnamed_addr #0 {
  %6 = getelementptr i8, ptr %3, i64 4
  %.val.i = load i32, ptr %6, align 4, !tbaa !32
  %7 = icmp sgt i32 %.val.i, 0
  br i1 %7, label %.lr.ph.i, label %If_ManImproveNodeFaninCompact1.exit.thread

.lr.ph.i:                                         ; preds = %5
  %8 = getelementptr i8, ptr %3, i64 8
  %.val16.i = load ptr, ptr %8, align 8, !tbaa !35
  %wide.trip.count.i = zext nneg i32 %.val.i to i64
  br label %9

9:                                                ; preds = %41, %.lr.ph.i
  %indvars.iv.i = phi i64 [ 0, %.lr.ph.i ], [ %indvars.iv.next.i, %41 ]
  %10 = getelementptr inbounds nuw ptr, ptr %.val16.i, i64 %indvars.iv.i
  %11 = load ptr, ptr %10, align 8, !tbaa !37
  %.val17.i = load i32, ptr %11, align 8
  %12 = and i32 %.val17.i, 15
  %.not.i = icmp eq i32 %12, 2
  br i1 %.not.i, label %41, label %13

13:                                               ; preds = %9
  %14 = getelementptr i8, ptr %11, i64 24
  %.val.i.i = load ptr, ptr %14, align 8, !tbaa !45
  %15 = load i32, ptr %.val.i.i, align 8
  %16 = and i32 %15, 256
  %.not.i.i = icmp eq i32 %16, 0
  br i1 %.not.i.i, label %If_ManImproveNodeWillGrow.exit.i, label %20

If_ManImproveNodeWillGrow.exit.i:                 ; preds = %13
  %17 = getelementptr i8, ptr %11, i64 32
  %.val5.i.i = load ptr, ptr %17, align 8, !tbaa !46
  %18 = load i32, ptr %.val5.i.i, align 8
  %19 = and i32 %18, 256
  %.not15.not.i = icmp eq i32 %19, 0
  br i1 %.not15.not.i, label %41, label %24

20:                                               ; preds = %13
  %21 = getelementptr inbounds nuw i8, ptr %11, i64 12
  %22 = load i32, ptr %21, align 4, !tbaa !40
  %23 = icmp eq i32 %22, 0
  %spec.select.i.i = sext i1 %23 to i32
  %.phi.trans.insert.i = getelementptr i8, ptr %11, i64 32
  %.val13.i.pre.i = load ptr, ptr %.phi.trans.insert.i, align 8, !tbaa !46
  %.pre.i = load i32, ptr %.val13.i.pre.i, align 8
  br label %32

24:                                               ; preds = %If_ManImproveNodeWillGrow.exit.i
  %25 = getelementptr inbounds nuw i8, ptr %11, i64 12
  %26 = load i32, ptr %25, align 4, !tbaa !40
  %27 = icmp eq i32 %26, 0
  %spec.select.i20.i = sext i1 %27 to i32
  %28 = getelementptr inbounds nuw i8, ptr %.val.i.i, i64 12
  %29 = load i32, ptr %28, align 4, !tbaa !40
  %30 = icmp eq i32 %29, 0
  %not..i.i = xor i1 %27, true
  %31 = zext i1 %not..i.i to i32
  %spec.select9.i.i = select i1 %30, i32 %31, i32 %spec.select.i20.i
  br label %32

32:                                               ; preds = %24, %20
  %33 = phi i32 [ %.pre.i, %20 ], [ %18, %24 ]
  %.val13.i.i = phi ptr [ %.val13.i.pre.i, %20 ], [ %.val5.i.i, %24 ]
  %.1.i.i = phi i32 [ %spec.select.i.i, %20 ], [ %spec.select9.i.i, %24 ]
  %34 = and i32 %33, 256
  %.not8.i.i = icmp eq i32 %34, 0
  br i1 %.not8.i.i, label %35, label %If_ManImproveNodeFaninCost.exit.i

35:                                               ; preds = %32
  %36 = getelementptr inbounds nuw i8, ptr %.val13.i.i, i64 12
  %37 = load i32, ptr %36, align 4, !tbaa !40
  %38 = icmp eq i32 %37, 0
  %39 = zext i1 %38 to i32
  %spec.select10.i.i = add nsw i32 %.1.i.i, %39
  br label %If_ManImproveNodeFaninCost.exit.i

If_ManImproveNodeFaninCost.exit.i:                ; preds = %35, %32
  %.2.i.i = phi i32 [ %.1.i.i, %32 ], [ %spec.select10.i.i, %35 ]
  %40 = icmp slt i32 %.2.i.i, 1
  br i1 %40, label %If_ManImproveNodeFaninCompact1.exit.thread.sink.split, label %41

41:                                               ; preds = %If_ManImproveNodeFaninCost.exit.i, %If_ManImproveNodeWillGrow.exit.i, %9
  %indvars.iv.next.i = add nuw nsw i64 %indvars.iv.i, 1
  %exitcond.not.i = icmp eq i64 %indvars.iv.next.i, %wide.trip.count.i
  br i1 %exitcond.not.i, label %thread-pre-split, label %9, !llvm.loop !47

thread-pre-split:                                 ; preds = %41
  %42 = icmp slt i32 %.val.i, %2
  br i1 %42, label %.lr.ph.i15, label %If_ManImproveNodeFaninCompact1.exit.thread

.lr.ph.i15:                                       ; preds = %thread-pre-split
  %43 = getelementptr i8, ptr %3, i64 8
  %.val13.i = load ptr, ptr %43, align 8, !tbaa !35
  %wide.trip.count.i16 = zext nneg i32 %.val.i to i64
  br label %44

44:                                               ; preds = %70, %.lr.ph.i15
  %indvars.iv.i17 = phi i64 [ 0, %.lr.ph.i15 ], [ %indvars.iv.next.i26, %70 ]
  %45 = getelementptr inbounds nuw ptr, ptr %.val13.i, i64 %indvars.iv.i17
  %46 = load ptr, ptr %45, align 8, !tbaa !37
  %.val14.i = load i32, ptr %46, align 8
  %47 = and i32 %.val14.i, 15
  %.not.i18 = icmp eq i32 %47, 2
  br i1 %.not.i18, label %70, label %48

48:                                               ; preds = %44
  %49 = getelementptr inbounds nuw i8, ptr %46, i64 12
  %50 = load i32, ptr %49, align 4, !tbaa !40
  %51 = icmp eq i32 %50, 0
  %spec.select.i.i19 = sext i1 %51 to i32
  %52 = getelementptr i8, ptr %46, i64 24
  %.val11.i.i = load ptr, ptr %52, align 8, !tbaa !45
  %53 = load i32, ptr %.val11.i.i, align 8
  %54 = and i32 %53, 256
  %.not.i.i20 = icmp eq i32 %54, 0
  br i1 %.not.i.i20, label %55, label %60

55:                                               ; preds = %48
  %56 = getelementptr inbounds nuw i8, ptr %.val11.i.i, i64 12
  %57 = load i32, ptr %56, align 4, !tbaa !40
  %58 = icmp eq i32 %57, 0
  %not..i.i29 = xor i1 %51, true
  %59 = zext i1 %not..i.i29 to i32
  %spec.select9.i.i30 = select i1 %58, i32 %59, i32 %spec.select.i.i19
  br label %60

60:                                               ; preds = %55, %48
  %.1.i.i21 = phi i32 [ %spec.select.i.i19, %48 ], [ %spec.select9.i.i30, %55 ]
  %61 = getelementptr i8, ptr %46, i64 32
  %.val13.i.i22 = load ptr, ptr %61, align 8, !tbaa !46
  %62 = load i32, ptr %.val13.i.i22, align 8
  %63 = and i32 %62, 256
  %.not8.i.i23 = icmp eq i32 %63, 0
  br i1 %.not8.i.i23, label %64, label %If_ManImproveNodeFaninCost.exit.i24

64:                                               ; preds = %60
  %65 = getelementptr inbounds nuw i8, ptr %.val13.i.i22, i64 12
  %66 = load i32, ptr %65, align 4, !tbaa !40
  %67 = icmp eq i32 %66, 0
  %68 = zext i1 %67 to i32
  %spec.select10.i.i28 = add nsw i32 %.1.i.i21, %68
  br label %If_ManImproveNodeFaninCost.exit.i24

If_ManImproveNodeFaninCost.exit.i24:              ; preds = %64, %60
  %.2.i.i25 = phi i32 [ %.1.i.i21, %60 ], [ %spec.select10.i.i28, %64 ]
  %69 = icmp slt i32 %.2.i.i25, 0
  br i1 %69, label %If_ManImproveNodeFaninCompact1.exit.thread.sink.split, label %70

70:                                               ; preds = %If_ManImproveNodeFaninCost.exit.i24, %44
  %indvars.iv.next.i26 = add nuw nsw i64 %indvars.iv.i17, 1
  %exitcond.not.i27 = icmp eq i64 %indvars.iv.next.i26, %wide.trip.count.i16
  br i1 %exitcond.not.i27, label %If_ManImproveNodeFaninCompact1.exit.thread, label %44, !llvm.loop !48

If_ManImproveNodeFaninCompact1.exit.thread.sink.split: ; preds = %If_ManImproveNodeFaninCost.exit.i, %If_ManImproveNodeFaninCost.exit.i24
  %.lcssa.sink = phi ptr [ %46, %If_ManImproveNodeFaninCost.exit.i24 ], [ %11, %If_ManImproveNodeFaninCost.exit.i ]
  tail call void @If_ManImproveNodeFaninUpdate(ptr readnone poison, ptr noundef nonnull %.lcssa.sink, ptr noundef nonnull %3, ptr noundef %4)
  br label %If_ManImproveNodeFaninCompact1.exit.thread

If_ManImproveNodeFaninCompact1.exit.thread:       ; preds = %70, %If_ManImproveNodeFaninCompact1.exit.thread.sink.split, %5, %thread-pre-split
  %.0 = phi i32 [ 0, %thread-pre-split ], [ 0, %5 ], [ 1, %If_ManImproveNodeFaninCompact1.exit.thread.sink.split ], [ 0, %70 ]
  ret i32 %.0
}